	.file	"overflow.c"
	.text
	.section	.rodata
.LC0:
	.string	"why are you here!"
	.text
	.globl	why_here
	.type	why_here, @function
why_here:
.LFB6:
	.cfi_startproc
	pushq	%rbp
	.cfi_def_cfa_offset 16
	.cfi_offset 6, -16
	movq	%rsp, %rbp
	.cfi_def_cfa_register 6
	leaq	.LC0(%rip), %rdi
	call	puts@PLT
	movl	$0, %edi
	call	exit@PLT
	.cfi_endproc
.LFE6:
	.size	why_here, .-why_here
	.globl	f
	.type	f, @function
f:
.LFB7:
	.cfi_startproc
	pushq	%rbp
	.cfi_def_cfa_offset 16
	.cfi_offset 6, -16
	movq	%rsp, %rbp
	.cfi_def_cfa_register 6
	leaq	why_here(%rip), %rax
	movl	%eax, 4(%rbp)
	nop
	popq	%rbp
	.cfi_def_cfa 7, 8
	ret
	.cfi_endproc
.LFE7:
	.size	f, .-f
	.globl	main
	.type	main, @function
main:
.LFB8:
	.cfi_startproc
	pushq	%rbp
	.cfi_def_cfa_offset 16
	.cfi_offset 6, -16
	movq	%rsp, %rbp
	.cfi_def_cfa_register 6
	subq	$16, %rsp
	movl	%edi, -4(%rbp)
	movq	%rsi, -16(%rbp)
	movl	$0, %eax
	call	f
	movl	$0, %eax
	leave
	.cfi_def_cfa 7, 8
	ret
	.cfi_endproc
.LFE8:
	.size	main, .-main
	.ident	"GCC: (Debian 8.4.0-4) 8.4.0"
	.section	.note.GNU-stack,"",@progbits
